
recurse.o:     file format elf32-i386


Disassembly of section .group:

00000000 <.group>:
   0:	01 00                	add    %eax,(%eax)
   2:	00 00                	add    %al,(%eax)
   4:	07                   	pop    %es
   5:	00 00                	add    %al,(%eax)
	...

Disassembly of section .text:

00000000 <recur>:
   0:	55                   	push   %ebp
   1:	89 e5                	mov    %esp,%ebp
   3:	53                   	push   %ebx
   4:	83 ec 04             	sub    $0x4,%esp
   7:	e8 fc ff ff ff       	call   8 <recur+0x8>
   c:	05 01 00 00 00       	add    $0x1,%eax
  11:	8b 55 08             	mov    0x8(%ebp),%edx
  14:	83 ec 04             	sub    $0x4,%esp
  17:	8d 4d 08             	lea    0x8(%ebp),%ecx
  1a:	51                   	push   %ecx
  1b:	52                   	push   %edx
  1c:	8d 90 00 00 00 00    	lea    0x0(%eax),%edx
  22:	52                   	push   %edx
  23:	89 c3                	mov    %eax,%ebx
  25:	e8 fc ff ff ff       	call   26 <recur+0x26>
  2a:	83 c4 10             	add    $0x10,%esp
  2d:	8b 45 08             	mov    0x8(%ebp),%eax
  30:	85 c0                	test   %eax,%eax
  32:	7e 14                	jle    48 <recur+0x48>
  34:	8b 45 08             	mov    0x8(%ebp),%eax
  37:	83 e8 01             	sub    $0x1,%eax
  3a:	83 ec 0c             	sub    $0xc,%esp
  3d:	50                   	push   %eax
  3e:	e8 fc ff ff ff       	call   3f <recur+0x3f>
  43:	83 c4 10             	add    $0x10,%esp
  46:	eb 05                	jmp    4d <recur+0x4d>
  48:	b8 00 00 00 00       	mov    $0x0,%eax
  4d:	8b 5d fc             	mov    -0x4(%ebp),%ebx
  50:	c9                   	leave  
  51:	c3                   	ret    

Disassembly of section .text.__x86.get_pc_thunk.ax:

00000000 <__x86.get_pc_thunk.ax>:
   0:	8b 04 24             	mov    (%esp),%eax
   3:	c3                   	ret    
